-----BEGIN CERTIFICATE REQUEST-----
MIIDBzCCAe8CAQAwgZIxDDAKBgNVBAoMA0lQTjEoMCYGCSqGSIb3DQEJARYZZW1p
bGlhbm9ydWJlbjkxQGdtYWlsLmNvbTEaMBgGA1UEAwwRd3d3LnNpZ2VzdHJ1cy5j
b20xDDAKBgNVBAsMA0lQTjEQMA4GA1UEBwwHVGVjYW1hYzELMAkGA1UEBhMCTVgx
DzANBgNVBAgMBk1leGljbzCCASIwDQYJKoZIhvcNAQEBBQADggEPADCCAQoCggEB
AKf7+Eg3vc52nK7cg4ml1Hd8ll42ygMrvayl/FYN0CYX50ox9LBUDQekzbNclFcA
M67jtwCK9mV7gJidGSp015BFdj4MWWzOn9g5CUo2KAXH2oYLhpw6yg9zRe0uTroR
CBIfqCuNexgNfzDSjGMbIlzQt8I6kQNOFMrNHvusKPOEsCSdwSsIAoKaiDSa98u/
4Bx3kD50IQLGTziYHL+DQ2pJcudm5cZ2Rg76ZqWFcmODQqtPAJlEIDHTOxLYYlD8
cplCUqG3FGWeZ6X9qHl5KnI5ImBrkdmGYSV1tC/FDrImYMeArdA7kIVWyrVSs3Kt
FJ4USi3BRf6BcWMHrrXU8L0CAwEAAaAvMC0GCSqGSIb3DQEJDjEgMB4wHAYDVR0R
BBUwE4IRd3d3LnNpZ2VzdHJ1cy5jb20wDQYJKoZIhvcNAQELBQADggEBAHXusXS6
nyZfnMInhe5WVgYRFWURzGIZjmqctLsE53rosjNcfleVC2cKutyC1S/52ZnYLffx
qSS38a593LHvuoTfq3mhKLRAl64MSGpAJR9gMFJWeZHBBK/DP05CF6OwK/V13IQ5
QVFoX8njKe9fX0PUx1E8f4FHSe9bU8lek/urb0od2p+Wez2c2oLb1eX/9HHk1B+c
W+Wqro3/H+HM0DT0+4/C9XKlkF6FEES91vaU+ltSi79QyzEccmt7lYUiwLOScvA6
+12ynm7EcsyNkpS2sBNPHXFLGHnSJ3xiy80d2mkwaN8v2TtiPEegHH1mt+ttEO8g
LDt3ee9DeJ+b8BI=
-----END CERTIFICATE REQUEST-----


Certificate Request:
    Data:
        Version: 0 (0x0)
        Subject: O = IPN, emailAddress = emilianoruben91@gmail.com, CN = www.sigestrus.com, OU = IPN, L = Tecamac, C = MX, ST = Mexico
        Subject Public Key Info:
            Public Key Algorithm: rsaEncryption
                Public-Key: (2048 bit)
                Modulus:
                    00:a7:fb:f8:48:37:bd:ce:76:9c:ae:dc:83:89:a5:
                    d4:77:7c:96:5e:36:ca:03:2b:bd:ac:a5:fc:56:0d:
                    d0:26:17:e7:4a:31:f4:b0:54:0d:07:a4:cd:b3:5c:
                    94:57:00:33:ae:e3:b7:00:8a:f6:65:7b:80:98:9d:
                    19:2a:74:d7:90:45:76:3e:0c:59:6c:ce:9f:d8:39:
                    09:4a:36:28:05:c7:da:86:0b:86:9c:3a:ca:0f:73:
                    45:ed:2e:4e:ba:11:08:12:1f:a8:2b:8d:7b:18:0d:
                    7f:30:d2:8c:63:1b:22:5c:d0:b7:c2:3a:91:03:4e:
                    14:ca:cd:1e:fb:ac:28:f3:84:b0:24:9d:c1:2b:08:
                    02:82:9a:88:34:9a:f7:cb:bf:e0:1c:77:90:3e:74:
                    21:02:c6:4f:38:98:1c:bf:83:43:6a:49:72:e7:66:
                    e5:c6:76:46:0e:fa:66:a5:85:72:63:83:42:ab:4f:
                    00:99:44:20:31:d3:3b:12:d8:62:50:fc:72:99:42:
                    52:a1:b7:14:65:9e:67:a5:fd:a8:79:79:2a:72:39:
                    22:60:6b:91:d9:86:61:25:75:b4:2f:c5:0e:b2:26:
                    60:c7:80:ad:d0:3b:90:85:56:ca:b5:52:b3:72:ad:
                    14:9e:14:4a:2d:c1:45:fe:81:71:63:07:ae:b5:d4:
                    f0:bd
                Exponent: 65537 (0x10001)
        Attributes:
        Requested Extensions:
            X509v3 Subject Alternative Name: 
                DNS:www.sigestrus.com
    Signature Algorithm: sha256WithRSAEncryption
         75:ee:b1:74:ba:9f:26:5f:9c:c2:27:85:ee:56:56:06:11:15:
         65:11:cc:62:19:8e:6a:9c:b4:bb:04:e7:7a:e8:b2:33:5c:7e:
         57:95:0b:67:0a:ba:dc:82:d5:2f:f9:d9:99:d8:2d:f7:f1:a9:
         24:b7:f1:ae:7d:dc:b1:ef:ba:84:df:ab:79:a1:28:b4:40:97:
         ae:0c:48:6a:40:25:1f:60:30:52:56:79:91:c1:04:af:c3:3f:
         4e:42:17:a3:b0:2b:f5:75:dc:84:39:41:51:68:5f:c9:e3:29:
         ef:5f:5f:43:d4:c7:51:3c:7f:81:47:49:ef:5b:53:c9:5e:93:
         fb:ab:6f:4a:1d:da:9f:96:7b:3d:9c:da:82:db:d5:e5:ff:f4:
         71:e4:d4:1f:9c:5b:e5:aa:ae:8d:ff:1f:e1:cc:d0:34:f4:fb:
         8f:c2:f5:72:a5:90:5e:85:10:44:bd:d6:f6:94:fa:5b:52:8b:
         bf:50:cb:31:1c:72:6b:7b:95:85:22:c0:b3:92:72:f0:3a:fb:
         5d:b2:9e:6e:c4:72:cc:8d:92:94:b6:b0:13:4f:1d:71:4b:18:
         79:d2:27:7c:62:cb:cd:1d:da:69:30:68:df:2f:d9:3b:62:3c:
         47:a0:1c:7d:66:b7:eb:6d:10:ef:20:2c:3b:77:79:ef:43:78:
         9f:9b:f0:12
Encoded Key:
-----BEGIN RSA PRIVATE KEY-----
MIIEowIBAAKCAQEAp/v4SDe9znacrtyDiaXUd3yWXjbKAyu9rKX8Vg3QJhfnSjH0
sFQNB6TNs1yUVwAzruO3AIr2ZXuAmJ0ZKnTXkEV2PgxZbM6f2DkJSjYoBcfahguG
nDrKD3NF7S5OuhEIEh+oK417GA1/MNKMYxsiXNC3wjqRA04Uys0e+6wo84SwJJ3B
KwgCgpqINJr3y7/gHHeQPnQhAsZPOJgcv4NDakly52blxnZGDvpmpYVyY4NCq08A
mUQgMdM7EthiUPxymUJSobcUZZ5npf2oeXkqcjkiYGuR2YZhJXW0L8UOsiZgx4Ct
0DuQhVbKtVKzcq0UnhRKLcFF/oFxYweutdTwvQIDAQABAoIBABd94DnROcT+x2iY
w/hi7XSMQscIKHYLDupvB/vM0LgTDbBNjid+iZfxDycvIjuMdq3VgIkd5dlJTTGK
frN2RZMSc7e3qGXT+3yUdV0gd7ZfPYsTX47HlexVNYk2uaHBsfw+2xjEH1u8v3XH
bASMDeEm+xu5bwAkUjoON3AAonVzddwRi/Yut7Io26DEB845XDMvYl5nYjPKSnmH
DbKd6HHcbzJVlUD6lRy2f1Yx6hK6ftkLzYK7tncZCGXnBqEaVNxS71AvwmmcI5Nv
XNzftBadK5p7eDV0aYV6HH2lC1KQIhIdMv971YRFPRjM6CrlWimKC+ByIqWyD05j
yPo2GiECgYEA1XfBg5ieIU60o3S6hyOYw7DBDHczD9gvUFgHwsGwzK9XiV4lD7K3
qVkKsqDWxwFmTdbS0VUfKS8m9Dj849X/7hn6FZ4xKuSP8DoxsvvIygMinfBbmaI+
12Cwf/RAsdkzcD7NtOVCghuVecdY5ZiSnqVxgsOntOsnxyR/XM09RJUCgYEAyXRC
DZd6cm0r+1RRmyKFEEhrBqzdcYAMjjQCz+AOqAJmOJAwx/Sh7E9ElpYQLH8ecth9
OwK/nurG4efBgIs3WBgpYhrCwo5dZetdj93Q+YzbS3ABJWmfxvGOX6ySf1Oy7coq
PYdQn8xOq+d3qw3DgXt+O1kPkHc+mTiNa9uaCYkCgYB8lcUqMaNwmwfQMis+/eaF
p54z0UnK4IhUotv8raCrBVbYhEqrC8onGyGkOTzArq9vlIY7yCtElRFuDeiCbH5P
D3gmr8nQV88uDDi/VjXMuOG2PfaoBsoYV4ULWJl9ct+TjgPupLMZTlIB3fejIFXK
I5LJF7nEXE496q4uklZEtQKBgCU7Jzn71NVw97/rRWm2Z4Eq4RzKteJUF/3v/tUM
Q6kpSFsLyvgpbgOOYs6xzStsEuSGvh4509A686asfkaTdBcD4CIRcA0k4n4DkbcU
95onPiAjAxM3AiByZC2qZyjA/0CTLFtStsPRrnh2vtcOJCO5/wpY21eHsjn/CaP1
YfKBAoGBAJGfzVM39mx1V5JpuALiM8aeN9c22eBA9ZXhCBQ5Mb4Hzz7MgIcRphFK
qx16WV76fxnSFmdi/6+rEuzYCtQgp24qs0YIbiAzX89xH9qgFIRW5zHTQWpanSer
Wq/xgJZdePuRWHzFaA74czoHYe2KtQxeJFFzOedU4U7HAhYJtZkW
-----END RSA PRIVATE KEY-----
Decoded Key:
Private-Key: (2048 bit)
modulus:
    00:a7:fb:f8:48:37:bd:ce:76:9c:ae:dc:83:89:a5:
    d4:77:7c:96:5e:36:ca:03:2b:bd:ac:a5:fc:56:0d:
    d0:26:17:e7:4a:31:f4:b0:54:0d:07:a4:cd:b3:5c:
    94:57:00:33:ae:e3:b7:00:8a:f6:65:7b:80:98:9d:
    19:2a:74:d7:90:45:76:3e:0c:59:6c:ce:9f:d8:39:
    09:4a:36:28:05:c7:da:86:0b:86:9c:3a:ca:0f:73:
    45:ed:2e:4e:ba:11:08:12:1f:a8:2b:8d:7b:18:0d:
    7f:30:d2:8c:63:1b:22:5c:d0:b7:c2:3a:91:03:4e:
    14:ca:cd:1e:fb:ac:28:f3:84:b0:24:9d:c1:2b:08:
    02:82:9a:88:34:9a:f7:cb:bf:e0:1c:77:90:3e:74:
    21:02:c6:4f:38:98:1c:bf:83:43:6a:49:72:e7:66:
    e5:c6:76:46:0e:fa:66:a5:85:72:63:83:42:ab:4f:
    00:99:44:20:31:d3:3b:12:d8:62:50:fc:72:99:42:
    52:a1:b7:14:65:9e:67:a5:fd:a8:79:79:2a:72:39:
    22:60:6b:91:d9:86:61:25:75:b4:2f:c5:0e:b2:26:
    60:c7:80:ad:d0:3b:90:85:56:ca:b5:52:b3:72:ad:
    14:9e:14:4a:2d:c1:45:fe:81:71:63:07:ae:b5:d4:
    f0:bd
publicExponent: 65537 (0x10001)
privateExponent:
    17:7d:e0:39:d1:39:c4:fe:c7:68:98:c3:f8:62:ed:
    74:8c:42:c7:08:28:76:0b:0e:ea:6f:07:fb:cc:d0:
    b8:13:0d:b0:4d:8e:27:7e:89:97:f1:0f:27:2f:22:
    3b:8c:76:ad:d5:80:89:1d:e5:d9:49:4d:31:8a:7e:
    b3:76:45:93:12:73:b7:b7:a8:65:d3:fb:7c:94:75:
    5d:20:77:b6:5f:3d:8b:13:5f:8e:c7:95:ec:55:35:
    89:36:b9:a1:c1:b1:fc:3e:db:18:c4:1f:5b:bc:bf:
    75:c7:6c:04:8c:0d:e1:26:fb:1b:b9:6f:00:24:52:
    3a:0e:37:70:00:a2:75:73:75:dc:11:8b:f6:2e:b7:
    b2:28:db:a0:c4:07:ce:39:5c:33:2f:62:5e:67:62:
    33:ca:4a:79:87:0d:b2:9d:e8:71:dc:6f:32:55:95:
    40:fa:95:1c:b6:7f:56:31:ea:12:ba:7e:d9:0b:cd:
    82:bb:b6:77:19:08:65:e7:06:a1:1a:54:dc:52:ef:
    50:2f:c2:69:9c:23:93:6f:5c:dc:df:b4:16:9d:2b:
    9a:7b:78:35:74:69:85:7a:1c:7d:a5:0b:52:90:22:
    12:1d:32:ff:7b:d5:84:45:3d:18:cc:e8:2a:e5:5a:
    29:8a:0b:e0:72:22:a5:b2:0f:4e:63:c8:fa:36:1a:
    21
prime1:
    00:d5:77:c1:83:98:9e:21:4e:b4:a3:74:ba:87:23:
    98:c3:b0:c1:0c:77:33:0f:d8:2f:50:58:07:c2:c1:
    b0:cc:af:57:89:5e:25:0f:b2:b7:a9:59:0a:b2:a0:
    d6:c7:01:66:4d:d6:d2:d1:55:1f:29:2f:26:f4:38:
    fc:e3:d5:ff:ee:19:fa:15:9e:31:2a:e4:8f:f0:3a:
    31:b2:fb:c8:ca:03:22:9d:f0:5b:99:a2:3e:d7:60:
    b0:7f:f4:40:b1:d9:33:70:3e:cd:b4:e5:42:82:1b:
    95:79:c7:58:e5:98:92:9e:a5:71:82:c3:a7:b4:eb:
    27:c7:24:7f:5c:cd:3d:44:95
prime2:
    00:c9:74:42:0d:97:7a:72:6d:2b:fb:54:51:9b:22:
    85:10:48:6b:06:ac:dd:71:80:0c:8e:34:02:cf:e0:
    0e:a8:02:66:38:90:30:c7:f4:a1:ec:4f:44:96:96:
    10:2c:7f:1e:72:d8:7d:3b:02:bf:9e:ea:c6:e1:e7:
    c1:80:8b:37:58:18:29:62:1a:c2:c2:8e:5d:65:eb:
    5d:8f:dd:d0:f9:8c:db:4b:70:01:25:69:9f:c6:f1:
    8e:5f:ac:92:7f:53:b2:ed:ca:2a:3d:87:50:9f:cc:
    4e:ab:e7:77:ab:0d:c3:81:7b:7e:3b:59:0f:90:77:
    3e:99:38:8d:6b:db:9a:09:89
exponent1:
    7c:95:c5:2a:31:a3:70:9b:07:d0:32:2b:3e:fd:e6:
    85:a7:9e:33:d1:49:ca:e0:88:54:a2:db:fc:ad:a0:
    ab:05:56:d8:84:4a:ab:0b:ca:27:1b:21:a4:39:3c:
    c0:ae:af:6f:94:86:3b:c8:2b:44:95:11:6e:0d:e8:
    82:6c:7e:4f:0f:78:26:af:c9:d0:57:cf:2e:0c:38:
    bf:56:35:cc:b8:e1:b6:3d:f6:a8:06:ca:18:57:85:
    0b:58:99:7d:72:df:93:8e:03:ee:a4:b3:19:4e:52:
    01:dd:f7:a3:20:55:ca:23:92:c9:17:b9:c4:5c:4e:
    3d:ea:ae:2e:92:56:44:b5
exponent2:
    25:3b:27:39:fb:d4:d5:70:f7:bf:eb:45:69:b6:67:
    81:2a:e1:1c:ca:b5:e2:54:17:fd:ef:fe:d5:0c:43:
    a9:29:48:5b:0b:ca:f8:29:6e:03:8e:62:ce:b1:cd:
    2b:6c:12:e4:86:be:1e:39:d3:d0:3a:f3:a6:ac:7e:
    46:93:74:17:03:e0:22:11:70:0d:24:e2:7e:03:91:
    b7:14:f7:9a:27:3e:20:23:03:13:37:02:20:72:64:
    2d:aa:67:28:c0:ff:40:93:2c:5b:52:b6:c3:d1:ae:
    78:76:be:d7:0e:24:23:b9:ff:0a:58:db:57:87:b2:
    39:ff:09:a3:f5:61:f2:81
coefficient:
    00:91:9f:cd:53:37:f6:6c:75:57:92:69:b8:02:e2:
    33:c6:9e:37:d7:36:d9:e0:40:f5:95:e1:08:14:39:
    31:be:07:cf:3e:cc:80:87:11:a6:11:4a:ab:1d:7a:
    59:5e:fa:7f:19:d2:16:67:62:ff:af:ab:12:ec:d8:
    0a:d4:20:a7:6e:2a:b3:46:08:6e:20:33:5f:cf:71:
    1f:da:a0:14:84:56:e7:31:d3:41:6a:5a:9d:27:ab:
    5a:af:f1:80:96:5d:78:fb:91:58:7c:c5:68:0e:f8:
    73:3a:07:61:ed:8a:b5:0c:5e:24:51:73:39:e7:54:
    e1:4e:c7:02:16:09:b5:99:16
